target datalayout = "e-m:e-p270:32:32-p271:32:32-p272:64:64-i64:64-i128:128-f80:128-n8:16:32:64-S128"
target triple = "x86_64-pc-linux-gnu"

%struct.job_record = type { i32, ptr, ptr, ptr, ptr, i16, i32, i32, i32, ptr, i32, ptr, ptr, i16, ptr, double, i64, ptr, ptr, ptr, ptr, ptr, ptr, i32, ptr, i32, i64, i64, i32, i32, ptr, i16, i64, i64, i8, i32, ptr, ptr, ptr, ptr, ptr, ptr, ptr, ptr, i32, ptr, ptr, i32, ptr, i32, ptr, i32, ptr, i32, ptr, ptr, ptr, ptr, ptr, ptr, i32, i16, i64, ptr, ptr, ptr, ptr, %struct.acct_policy_limit_set_t, i16, ptr, ptr, ptr, ptr, ptr, i32, ptr, ptr, ptr, ptr, ptr, i32, i32, ptr, ptr, ptr, i16, ptr, ptr, i8, ptr, ptr, i64, i64, i8, i32, i32, i8, i32, ptr, i32, i64, i32, ptr, ptr, ptr, i8, i16, i64, i32, ptr, ptr, ptr, ptr, ptr, i16, i32, ptr, ptr, ptr, ptr, i32, ptr, i32, i16, i64, ptr, i32, i32, ptr, i64, ptr, ptr, i64, i32, i32, i64, i32, i32, ptr, ptr, ptr, ptr, ptr, ptr, ptr, ptr, ptr, ptr, ptr, ptr, i32, ptr, i16, i16, i16, i16, ptr, i32, i32, i8, i64 }
%struct.acct_policy_limit_set_t = type { i16, i16, ptr }
%struct.job_array_struct = type { i32, ptr, ptr, i32, i32, i32, i32, i32, i32, i32 }

@.str.63 = private unnamed_addr constant [43 x i8] c"%s: Could not find meta job record for %pJ\00", align 1
@__func__._first_array_task = private unnamed_addr constant [18 x i8] c"_first_array_task\00", align 1

; Function Attrs: nounwind uwtable
define internal zeroext i1 @_first_array_task(ptr noundef %0) #0 {
  %2 = alloca i1, align 1
  %3 = alloca ptr, align 8
  %4 = alloca ptr, align 8
  %5 = alloca i32, align 4
  store ptr %0, ptr %3, align 8
  call void @llvm.lifetime.start.p0(i64 8, ptr %4) #8
  %6 = load ptr, ptr %3, align 8
  %7 = getelementptr inbounds nuw %struct.job_record, ptr %6, i32 0, i32 8
  %8 = load i32, ptr %7, align 4
  %9 = icmp eq i32 %8, -2
  br i1 %9, label %10, label %11

10:                                               ; preds = %1
  store i1 true, ptr %2, align 1
  store i32 1, ptr %5, align 4
  br label %42

11:                                               ; preds = %1
  %12 = load ptr, ptr %3, align 8
  %13 = getelementptr inbounds nuw %struct.job_record, ptr %12, i32 0, i32 7
  %14 = load i32, ptr %13, align 8
  %15 = call ptr @find_job_record(i32 noundef %14)
  store ptr %15, ptr %4, align 8
  %16 = load ptr, ptr %4, align 8
  %17 = icmp ne ptr %16, null
  br i1 %17, label %18, label %23

18:                                               ; preds = %11
  %19 = load ptr, ptr %4, align 8
  %20 = getelementptr inbounds nuw %struct.job_record, ptr %19, i32 0, i32 9
  %21 = load ptr, ptr %20, align 8
  %22 = icmp ne ptr %21, null
  br i1 %22, label %26, label %23

23:                                               ; preds = %18, %11
  %24 = load ptr, ptr %3, align 8
  %25 = call i32 (ptr, ...) @error(ptr noundef @.str.63, ptr noundef @__func__._first_array_task, ptr noundef %24)
  store i1 true, ptr %2, align 1
  store i32 1, ptr %5, align 4
  br label %42

26:                                               ; preds = %18
  %27 = load ptr, ptr %4, align 8
  %28 = getelementptr inbounds nuw %struct.job_record, ptr %27, i32 0, i32 9
  %29 = load ptr, ptr %28, align 8
  %30 = getelementptr inbounds nuw %struct.job_array_struct, ptr %29, i32 0, i32 5
  %31 = load i32, ptr %30, align 8
  %32 = icmp eq i32 %31, 1
  br i1 %32, label %33, label %41

33:                                               ; preds = %26
  %34 = load ptr, ptr %4, align 8
  %35 = getelementptr inbounds nuw %struct.job_record, ptr %34, i32 0, i32 9
  %36 = load ptr, ptr %35, align 8
  %37 = getelementptr inbounds nuw %struct.job_array_struct, ptr %36, i32 0, i32 9
  %38 = load i32, ptr %37, align 8
  %39 = icmp eq i32 %38, 0
  br i1 %39, label %40, label %41

40:                                               ; preds = %33
  store i1 true, ptr %2, align 1
  store i32 1, ptr %5, align 4
  br label %42

41:                                               ; preds = %33, %26
  store i1 false, ptr %2, align 1
  store i32 1, ptr %5, align 4
  br label %42

42:                                               ; preds = %41, %40, %23, %10
  call void @llvm.lifetime.end.p0(i64 8, ptr %4) #8
  %43 = load i1, ptr %2, align 1
  ret i1 %43
}