; Function Attrs: nounwind uwtable
define internal fastcc noundef zeroext i1 @_first_array_task(ptr noundef %0) unnamed_addr #0 {
  %2 = getelementptr inbounds nuw i8, ptr %0, i64 52
  %3 = load i32, ptr %2, align 4
  %4 = icmp eq i32 %3, -2
  br i1 %4, label %23, label %5

5:                                                ; preds = %1
  %6 = getelementptr inbounds nuw i8, ptr %0, i64 48
  %7 = load i32, ptr %6, align 8
  %8 = tail call ptr @find_job_record(i32 noundef %7) #14
  %.not = icmp eq ptr %8, null
  br i1 %.not, label %12, label %9

9:                                                ; preds = %5
  %10 = getelementptr inbounds nuw i8, ptr %8, i64 56
  %11 = load ptr, ptr %10, align 8
  %.not10 = icmp eq ptr %11, null
  br i1 %.not10, label %12, label %14

12:                                               ; preds = %9, %5
  %13 = tail call i32 (ptr, ...) @error(ptr noundef nonnull @.str.63, ptr noundef nonnull @__func__._first_array_task, ptr noundef nonnull %0) #14
  br label %23

14:                                               ; preds = %9
  %15 = getelementptr inbounds nuw i8, ptr %11, i64 32
  %16 = load i32, ptr %15, align 8
  %17 = icmp eq i32 %16, 1
  br i1 %17, label %18, label %22

18:                                               ; preds = %14
  %19 = getelementptr inbounds nuw i8, ptr %11, i64 48
  %20 = load i32, ptr %19, align 8
  %21 = icmp eq i32 %20, 0
  br i1 %21, label %23, label %22

22:                                               ; preds = %18, %14
  br label %23

23:                                               ; preds = %18, %1, %22, %12
  %.0 = phi i1 [ false, %22 ], [ true, %12 ], [ true, %1 ], [ true, %18 ]
  ret i1 %.0
}